; Function Attrs: mustprogress nounwind uwtable
define dso_local noundef i64 @_ZNK4llvm6object15XCOFFObjectFile18getSymbolValueImplENS0_11DataRefImplE(ptr noundef nonnull align 8 dereferenceable(96) %0, i64 %1) unnamed_addr #0 align 2 {
  %3 = load ptr, ptr %0, align 8
  %4 = getelementptr inbounds i8, ptr %3, i64 64
  %5 = load ptr, ptr %4, align 8
  %6 = tail call noundef zeroext i1 %5(ptr noundef nonnull align 8 dereferenceable(96) %0) #23
  %7 = inttoptr i64 %1 to ptr
  br i1 %6, label %8, label %10

8:                                                ; preds = %2
  call void @llvm.assume(i1 true) [ "align"(ptr %7, i64 1) ]
  %.0.copyload.i.i.i.i.i = load i64, ptr %7, align 1
  %9 = tail call noundef i64 @llvm.bswap.i64(i64 %.0.copyload.i.i.i.i.i)
  br label %_ZNK4llvm6object14XCOFFSymbolRef8getValueEv.exit

10:                                               ; preds = %2
  %11 = getelementptr inbounds nuw i8, ptr %7, i64 8
  call void @llvm.assume(i1 true) [ "align"(ptr %11, i64 1) ]
  %.0.copyload.i.i.i.i2.i = load i32, ptr %11, align 1
  %12 = tail call noundef i32 @llvm.bswap.i32(i32 %.0.copyload.i.i.i.i2.i)
  %13 = zext i32 %12 to i64
  br label %_ZNK4llvm6object14XCOFFSymbolRef8getValueEv.exit

_ZNK4llvm6object14XCOFFSymbolRef8getValueEv.exit: ; preds = %8, %10
  %14 = phi i64 [ %9, %8 ], [ %13, %10 ]
  ret i64 %14
}